target datalayout = "e-m:e-p270:32:32-p271:32:32-p272:64:64-i64:64-i128:128-f80:128-n8:16:32:64-S128"
target triple = "x86_64-unknown-linux-gnu"

%"class.std::_Sp_counted_base" = type { ptr, i32, i32 }
%"class.std::_Sp_counted_deleter" = type { %"class.std::_Sp_counted_base", %"class.std::_Sp_counted_deleter<node::inspector::(anonymous namespace)::RequestQueueData *, void (*)(node::inspector::(anonymous namespace)::RequestQueueData *), std::allocator<void>, __gnu_cxx::_S_atomic>::_Impl" }
%"class.std::_Sp_counted_deleter<node::inspector::(anonymous namespace)::RequestQueueData *, void (*)(node::inspector::(anonymous namespace)::RequestQueueData *), std::allocator<void>, __gnu_cxx::_S_atomic>::_Impl" = type { %"struct.std::_Sp_ebo_helper.100", ptr }
%"struct.std::_Sp_ebo_helper.100" = type { ptr }

; Function Attrs: mustprogress nounwind uwtable
define internal noundef nonnull align 8 dereferenceable(8) ptr @_ZNSt14_Sp_ebo_helperILi0EPFvPN4node9inspector12_GLOBAL__N_116RequestQueueDataEELb0EE6_S_getERS7_(ptr noundef nonnull align 8 dereferenceable(8) %__eboh) #4 align 2 {
entry:
  %__eboh.addr = alloca ptr, align 8
  store ptr %__eboh, ptr %__eboh.addr, align 8
  %0 = load ptr, ptr %__eboh.addr, align 8
  %_M_tp = getelementptr inbounds %"struct.std::_Sp_ebo_helper.100", ptr %0, i32 0, i32 0
  ret ptr %_M_tp
}

; Function Attrs: mustprogress nounwind uwtable
define internal noundef nonnull align 8 dereferenceable(8) ptr @_ZNSt19_Sp_counted_deleterIPN4node9inspector12_GLOBAL__N_116RequestQueueDataEPFvS4_ESaIvELN9__gnu_cxx12_Lock_policyE2EE5_Impl6_M_delEv(ptr noundef nonnull align 8 dereferenceable(16) %this) #4 align 2 {
entry:
  %this.addr = alloca ptr, align 8
  store ptr %this, ptr %this.addr, align 8
  %this1 = load ptr, ptr %this.addr, align 8
  %call = call noundef nonnull align 8 dereferenceable(8) ptr @_ZNSt14_Sp_ebo_helperILi0EPFvPN4node9inspector12_GLOBAL__N_116RequestQueueDataEELb0EE6_S_getERS7_(ptr noundef nonnull align 8 dereferenceable(8) %this1)
  ret ptr %call
}

; Function Attrs: mustprogress nounwind uwtable
define internal void @_ZNSt19_Sp_counted_deleterIPN4node9inspector12_GLOBAL__N_116RequestQueueDataEPFvS4_ESaIvELN9__gnu_cxx12_Lock_policyE2EE10_M_disposeEv(ptr noundef nonnull align 8 dereferenceable(32) %this) unnamed_addr #4 align 2 {
entry:
  %this.addr = alloca ptr, align 8
  store ptr %this, ptr %this.addr, align 8
  %this1 = load ptr, ptr %this.addr, align 8
  %_M_impl = getelementptr inbounds %"class.std::_Sp_counted_deleter", ptr %this1, i32 0, i32 1
  %call = call noundef nonnull align 8 dereferenceable(8) ptr @_ZNSt19_Sp_counted_deleterIPN4node9inspector12_GLOBAL__N_116RequestQueueDataEPFvS4_ESaIvELN9__gnu_cxx12_Lock_policyE2EE5_Impl6_M_delEv(ptr noundef nonnull align 8 dereferenceable(16) %_M_impl) #3
  %0 = load ptr, ptr %call, align 8
  %_M_impl2 = getelementptr inbounds %"class.std::_Sp_counted_deleter", ptr %this1, i32 0, i32 1
  %_M_ptr = getelementptr inbounds %"class.std::_Sp_counted_deleter<node::inspector::(anonymous namespace)::RequestQueueData *, void (*)(node::inspector::(anonymous namespace)::RequestQueueData *), std::allocator<void>, __gnu_cxx::_S_atomic>::_Impl", ptr %_M_impl2, i32 0, i32 1
  %1 = load ptr, ptr %_M_ptr, align 8
  call void %0(ptr noundef %1)
  ret void
}