; Function Attrs: mustprogress nounwind uwtable
define internal void @_ZNSt19_Sp_counted_deleterIPN4node9inspector12_GLOBAL__N_116RequestQueueDataEPFvS4_ESaIvELN9__gnu_cxx12_Lock_policyE2EE10_M_disposeEv(ptr nocapture noundef nonnull readonly align 8 dereferenceable(32) %this) unnamed_addr #3 align 2 {
entry:
  %_M_impl = getelementptr inbounds i8, ptr %this, i64 16
  %0 = load ptr, ptr %_M_impl, align 8
  %_M_ptr = getelementptr inbounds i8, ptr %this, i64 24
  %1 = load ptr, ptr %_M_ptr, align 8
  tail call void %0(ptr noundef %1) #18
  ret void
}